; Function Attrs: mustprogress nounwind uwtable
define hidden void @_ZN2lp10int_solverD2Ev(ptr noundef nonnull readonly align 8 captures(none) dereferenceable(32) %0) unnamed_addr #6 align 2 personality ptr @__gxx_personality_v0 {
  %2 = getelementptr inbounds nuw i8, ptr %0, i64 16
  %3 = load ptr, ptr %2, align 8, !tbaa !40
  %4 = icmp eq ptr %3, null
  br i1 %4, label %_Z7deallocIN2lp10int_solver3impEEvPT_.exit, label %5

5:                                                ; preds = %1
  tail call void @_ZN2lp10int_solver3impD2Ev(ptr noundef nonnull align 8 dereferenceable(484) %3) #25
  invoke void @_ZN6memory10deallocateEPv(ptr noundef nonnull %3)
          to label %_Z7deallocIN2lp10int_solver3impEEvPT_.exit unwind label %16

_Z7deallocIN2lp10int_solver3impEEvPT_.exit:       ; preds = %1, %5
  %6 = getelementptr inbounds nuw i8, ptr %0, i64 24
  %7 = load ptr, ptr %6, align 8, !tbaa !37
  %.not.i.i = icmp eq ptr %7, null
  br i1 %.not.i.i, label %_ZN6vectorIN2lp8equalityELb1EjED2Ev.exit, label %_ZN6vectorIN2lp8equalityELb1EjE16destroy_elementsEv.exit.i.i

_ZN6vectorIN2lp8equalityELb1EjE16destroy_elementsEv.exit.i.i: ; preds = %_Z7deallocIN2lp10int_solver3impEEvPT_.exit
  %8 = getelementptr inbounds i8, ptr %7, i64 -4
  %9 = load i32, ptr %8, align 4, !tbaa !31
  %10 = invoke noundef ptr @_ZNSt14_Destroy_n_auxILb0EE11__destroy_nIPN2lp8equalityEjEET_S5_T0_(ptr noundef nonnull %7, i32 noundef %9)
          to label %.noexc.i unwind label %13

.noexc.i:                                         ; preds = %_ZN6vectorIN2lp8equalityELb1EjE16destroy_elementsEv.exit.i.i
  %11 = load ptr, ptr %6, align 8, !tbaa !37
  %12 = getelementptr inbounds i8, ptr %11, i64 -8
  invoke void @_ZN6memory10deallocateEPv(ptr noundef nonnull %12)
          to label %_ZN6vectorIN2lp8equalityELb1EjED2Ev.exit unwind label %13

13:                                               ; preds = %.noexc.i, %_ZN6vectorIN2lp8equalityELb1EjE16destroy_elementsEv.exit.i.i
  %14 = landingpad { ptr, i32 }
          catch ptr null
  %15 = extractvalue { ptr, i32 } %14, 0
  tail call void @__clang_call_terminate(ptr %15) #26
  unreachable

_ZN6vectorIN2lp8equalityELb1EjED2Ev.exit:         ; preds = %_Z7deallocIN2lp10int_solver3impEEvPT_.exit, %.noexc.i
  ret void

16:                                               ; preds = %5
  %17 = landingpad { ptr, i32 }
          catch ptr null
  %18 = extractvalue { ptr, i32 } %17, 0
  tail call void @__clang_call_terminate(ptr %18) #26
  unreachable
}